#include <math.h>
#include <stdio.h>
#include <stdlib.h>
#include <string.h>

void main()
{
	char s[31],w[31];
	char *pin,*ps,*pw;
	int flag,ls,lw;
	scanf("%s",s);
	scanf("%s",w);
	ls=strlen(s);
	lw=strlen(w);
	ps=s;
	pw=w;
	for (;pw<=s+ls-lw;pw++)
		if (*pw==*ps)
		{
			pin=pw;
			flag=1;
			for (;*ps!='\0';pw++,ps++)
				if (*pw!=*ps) 
				{
					flag=0;
					break;
				}
			if (flag)
			{
				printf("%d",pin-w);
				break;
			}
			pw=pin;
			ps=s;
		}
}