; ModuleID = '45/416.c'
source_filename = "45/416.c"
target datalayout = "e-m:e-p270:32:32-p271:32:32-p272:64:64-i64:64-f80:128-n8:16:32:64-S128"
target triple = "x86_64-pc-linux-gnu"

@.str = private unnamed_addr constant [3 x i8] c"%s\00", align 1
@.str.1 = private unnamed_addr constant [3 x i8] c"%d\00", align 1

; Function Attrs: noinline nounwind uwtable
define dso_local void @main() #0 {
  %1 = alloca [31 x i8], align 16
  %2 = alloca [31 x i8], align 16
  %3 = alloca i8*, align 8
  %4 = alloca i8*, align 8
  %5 = alloca i8*, align 8
  %6 = alloca i32, align 4
  %7 = alloca i32, align 4
  %8 = alloca i32, align 4
  %9 = getelementptr inbounds [31 x i8], [31 x i8]* %1, i64 0, i64 0
  %10 = call i32 (i8*, ...) @__isoc99_scanf(i8* getelementptr inbounds ([3 x i8], [3 x i8]* @.str, i64 0, i64 0), i8* %9)
  %11 = getelementptr inbounds [31 x i8], [31 x i8]* %2, i64 0, i64 0
  %12 = call i32 (i8*, ...) @__isoc99_scanf(i8* getelementptr inbounds ([3 x i8], [3 x i8]* @.str, i64 0, i64 0), i8* %11)
  %13 = getelementptr inbounds [31 x i8], [31 x i8]* %1, i64 0, i64 0
  %14 = call i64 @strlen(i8* %13) #3
  %15 = trunc i64 %14 to i32
  store i32 %15, i32* %7, align 4
  %16 = getelementptr inbounds [31 x i8], [31 x i8]* %2, i64 0, i64 0
  %17 = call i64 @strlen(i8* %16) #3
  %18 = trunc i64 %17 to i32
  store i32 %18, i32* %8, align 4
  %19 = getelementptr inbounds [31 x i8], [31 x i8]* %1, i64 0, i64 0
  store i8* %19, i8** %4, align 8
  %20 = getelementptr inbounds [31 x i8], [31 x i8]* %2, i64 0, i64 0
  store i8* %20, i8** %5, align 8
  br label %21

21:                                               ; preds = %76, %0
  %22 = load i8*, i8** %5, align 8
  %23 = getelementptr inbounds [31 x i8], [31 x i8]* %1, i64 0, i64 0
  %24 = load i32, i32* %7, align 4
  %25 = sext i32 %24 to i64
  %26 = getelementptr inbounds i8, i8* %23, i64 %25
  %27 = load i32, i32* %8, align 4
  %28 = sext i32 %27 to i64
  %29 = sub i64 0, %28
  %30 = getelementptr inbounds i8, i8* %26, i64 %29
  %31 = icmp ule i8* %22, %30
  br i1 %31, label %32, label %79

32:                                               ; preds = %21
  %33 = load i8*, i8** %5, align 8
  %34 = load i8, i8* %33, align 1
  %35 = sext i8 %34 to i32
  %36 = load i8*, i8** %4, align 8
  %37 = load i8, i8* %36, align 1
  %38 = sext i8 %37 to i32
  %39 = icmp eq i32 %35, %38
  br i1 %39, label %40, label %75

40:                                               ; preds = %32
  %41 = load i8*, i8** %5, align 8
  store i8* %41, i8** %3, align 8
  store i32 1, i32* %6, align 4
  br label %42

42:                                               ; preds = %57, %40
  %43 = load i8*, i8** %4, align 8
  %44 = load i8, i8* %43, align 1
  %45 = sext i8 %44 to i32
  %46 = icmp ne i32 %45, 0
  br i1 %46, label %47, label %62

47:                                               ; preds = %42
  %48 = load i8*, i8** %5, align 8
  %49 = load i8, i8* %48, align 1
  %50 = sext i8 %49 to i32
  %51 = load i8*, i8** %4, align 8
  %52 = load i8, i8* %51, align 1
  %53 = sext i8 %52 to i32
  %54 = icmp ne i32 %50, %53
  br i1 %54, label %55, label %56

55:                                               ; preds = %47
  store i32 0, i32* %6, align 4
  br label %62

56:                                               ; preds = %47
  br label %57

57:                                               ; preds = %56
  %58 = load i8*, i8** %5, align 8
  %59 = getelementptr inbounds i8, i8* %58, i32 1
  store i8* %59, i8** %5, align 8
  %60 = load i8*, i8** %4, align 8
  %61 = getelementptr inbounds i8, i8* %60, i32 1
  store i8* %61, i8** %4, align 8
  br label %42

62:                                               ; preds = %55, %42
  %63 = load i32, i32* %6, align 4
  %64 = icmp ne i32 %63, 0
  br i1 %64, label %65, label %72

65:                                               ; preds = %62
  %66 = load i8*, i8** %3, align 8
  %67 = getelementptr inbounds [31 x i8], [31 x i8]* %2, i64 0, i64 0
  %68 = ptrtoint i8* %66 to i64
  %69 = ptrtoint i8* %67 to i64
  %70 = sub i64 %68, %69
  %71 = call i32 (i8*, ...) @printf(i8* getelementptr inbounds ([3 x i8], [3 x i8]* @.str.1, i64 0, i64 0), i64 %70)
  br label %79

72:                                               ; preds = %62
  %73 = load i8*, i8** %3, align 8
  store i8* %73, i8** %5, align 8
  %74 = getelementptr inbounds [31 x i8], [31 x i8]* %1, i64 0, i64 0
  store i8* %74, i8** %4, align 8
  br label %75

75:                                               ; preds = %72, %32
  br label %76

76:                                               ; preds = %75
  %77 = load i8*, i8** %5, align 8
  %78 = getelementptr inbounds i8, i8* %77, i32 1
  store i8* %78, i8** %5, align 8
  br label %21

79:                                               ; preds = %65, %21
  ret void
}

declare dso_local i32 @__isoc99_scanf(i8*, ...) #1

; Function Attrs: nounwind readonly
declare dso_local i64 @strlen(i8*) #2

declare dso_local i32 @printf(i8*, ...) #1


!llvm.module.flags = !{!0}
!llvm.ident = !{!1}

!0 = !{i32 1, !"wchar_size", i32 4}
!1 = !{!"clang version 10.0.0-4ubuntu1 "}
